target datalayout = "e-m:e-p270:32:32-p271:32:32-p272:64:64-i64:64-i128:128-f80:128-n8:16:32:64-S128"
target triple = "x86_64-pc-linux-gnu"

%struct.SDL_Renderer = type { ptr, ptr, ptr, ptr, ptr, ptr, ptr, ptr, ptr, ptr, ptr, ptr, ptr, ptr, ptr, ptr, ptr, ptr, ptr, ptr, ptr, ptr, ptr, ptr, ptr, ptr, ptr, ptr, ptr, ptr, i32, i8, ptr, i8, i8, i8, i64, i64, ptr, %struct.SDL_RenderViewState, %struct.SDL_FPoint, i32, i32, ptr, ptr, ptr, i32, float, float, float, float, %struct.SDL_FColor, i32, i32, i32, ptr, ptr, ptr, ptr, i32, %struct.SDL_FColor, float, %struct.SDL_Rect, %struct.SDL_Rect, i8, i8, i8, i8, ptr, i64, i64, i8, ptr, ptr, i32, ptr, i8, ptr, ptr }
%struct.SDL_RenderViewState = type { i32, i32, %struct.SDL_Rect, %struct.SDL_Rect, %struct.SDL_Rect, %struct.SDL_Rect, i8, %struct.SDL_FPoint, i32, i32, i32, %struct.SDL_FRect, %struct.SDL_FRect, %struct.SDL_FPoint, %struct.SDL_FPoint, %struct.SDL_FPoint }
%struct.SDL_FRect = type { float, float, float, float }
%struct.SDL_FPoint = type { float, float }
%struct.SDL_FColor = type { float, float, float, float }
%struct.SDL_Rect = type { i32, i32, i32, i32 }
%struct.SDL_Texture = type { i32, i32, i32, i32, i32, float, float, i32, i32, i32, %struct.SDL_FColor, %struct.SDL_RenderViewState, ptr, ptr, ptr, ptr, i32, %struct.SDL_Rect, ptr, i32, i32, ptr, ptr, ptr }

@.str.2 = private unnamed_addr constant [26 x i8] c"Parameter '%s' is invalid\00", align 1
@.str.52 = private unnamed_addr constant [8 x i8] c"texture\00", align 1
@.str.54 = private unnamed_addr constant [32 x i8] c"That operation is not supported\00", align 1
@.str.58 = private unnamed_addr constant [7 x i8] c"Yplane\00", align 1
@.str.59 = private unnamed_addr constant [7 x i8] c"Ypitch\00", align 1
@.str.65 = private unnamed_addr constant [8 x i8] c"UVplane\00", align 1
@.str.66 = private unnamed_addr constant [8 x i8] c"UVpitch\00", align 1
@.str.67 = private unnamed_addr constant [36 x i8] c"Texture format must by NV12 or NV21\00", align 1

; Function Attrs: nounwind uwtable
define hidden zeroext i1 @SDL_UpdateNVTexture_REAL(ptr noundef %0, ptr noundef %1, ptr noundef %2, i32 noundef %3, ptr noundef %4, i32 noundef %5) #0 {
  %7 = alloca i1, align 1
  %8 = alloca ptr, align 8
  %9 = alloca ptr, align 8
  %10 = alloca ptr, align 8
  %11 = alloca i32, align 4
  %12 = alloca ptr, align 8
  %13 = alloca i32, align 4
  %14 = alloca ptr, align 8
  %15 = alloca %struct.SDL_Rect, align 4
  %16 = alloca i32, align 4
  store ptr %0, ptr %8, align 8
  store ptr %1, ptr %9, align 8
  store ptr %2, ptr %10, align 8
  store i32 %3, ptr %11, align 4
  store ptr %4, ptr %12, align 8
  store i32 %5, ptr %13, align 4
  call void @llvm.lifetime.start.p0(i64 8, ptr %14) #10
  call void @llvm.lifetime.start.p0(i64 16, ptr %15) #10
  %17 = load ptr, ptr %8, align 8
  %18 = call zeroext i1 @SDL_ObjectValid(ptr noundef %17, i32 noundef 3)
  br i1 %18, label %21, label %19

19:                                               ; preds = %6
  %20 = call zeroext i1 (ptr, ...) @SDL_SetError_REAL(ptr noundef @.str.2, ptr noundef @.str.52)
  store i1 false, ptr %7, align 1
  store i32 1, ptr %16, align 4
  br label %121

21:                                               ; preds = %6
  %22 = load ptr, ptr %10, align 8
  %23 = icmp ne ptr %22, null
  br i1 %23, label %26, label %24

24:                                               ; preds = %21
  %25 = call zeroext i1 (ptr, ...) @SDL_SetError_REAL(ptr noundef @.str.2, ptr noundef @.str.58)
  store i1 %25, ptr %7, align 1
  store i32 1, ptr %16, align 4
  br label %121

26:                                               ; preds = %21
  %27 = load i32, ptr %11, align 4
  %28 = icmp ne i32 %27, 0
  br i1 %28, label %31, label %29

29:                                               ; preds = %26
  %30 = call zeroext i1 (ptr, ...) @SDL_SetError_REAL(ptr noundef @.str.2, ptr noundef @.str.59)
  store i1 %30, ptr %7, align 1
  store i32 1, ptr %16, align 4
  br label %121

31:                                               ; preds = %26
  %32 = load ptr, ptr %12, align 8
  %33 = icmp ne ptr %32, null
  br i1 %33, label %36, label %34

34:                                               ; preds = %31
  %35 = call zeroext i1 (ptr, ...) @SDL_SetError_REAL(ptr noundef @.str.2, ptr noundef @.str.65)
  store i1 %35, ptr %7, align 1
  store i32 1, ptr %16, align 4
  br label %121

36:                                               ; preds = %31
  %37 = load i32, ptr %13, align 4
  %38 = icmp ne i32 %37, 0
  br i1 %38, label %41, label %39

39:                                               ; preds = %36
  %40 = call zeroext i1 (ptr, ...) @SDL_SetError_REAL(ptr noundef @.str.2, ptr noundef @.str.66)
  store i1 %40, ptr %7, align 1
  store i32 1, ptr %16, align 4
  br label %121

41:                                               ; preds = %36
  %42 = load ptr, ptr %8, align 8
  %43 = getelementptr inbounds nuw %struct.SDL_Texture, ptr %42, i32 0, i32 0
  %44 = load i32, ptr %43, align 8
  %45 = icmp ne i32 %44, 842094158
  br i1 %45, label %46, label %53

46:                                               ; preds = %41
  %47 = load ptr, ptr %8, align 8
  %48 = getelementptr inbounds nuw %struct.SDL_Texture, ptr %47, i32 0, i32 0
  %49 = load i32, ptr %48, align 8
  %50 = icmp ne i32 %49, 825382478
  br i1 %50, label %51, label %53

51:                                               ; preds = %46
  %52 = call zeroext i1 (ptr, ...) @SDL_SetError_REAL(ptr noundef @.str.67)
  store i1 %52, ptr %7, align 1
  store i32 1, ptr %16, align 4
  br label %121

53:                                               ; preds = %46, %41
  %54 = getelementptr inbounds nuw %struct.SDL_Rect, ptr %15, i32 0, i32 0
  store i32 0, ptr %54, align 4
  %55 = getelementptr inbounds nuw %struct.SDL_Rect, ptr %15, i32 0, i32 1
  store i32 0, ptr %55, align 4
  %56 = load ptr, ptr %8, align 8
  %57 = getelementptr inbounds nuw %struct.SDL_Texture, ptr %56, i32 0, i32 1
  %58 = load i32, ptr %57, align 4
  %59 = getelementptr inbounds nuw %struct.SDL_Rect, ptr %15, i32 0, i32 2
  store i32 %58, ptr %59, align 4
  %60 = load ptr, ptr %8, align 8
  %61 = getelementptr inbounds nuw %struct.SDL_Texture, ptr %60, i32 0, i32 2
  %62 = load i32, ptr %61, align 8
  %63 = getelementptr inbounds nuw %struct.SDL_Rect, ptr %15, i32 0, i32 3
  store i32 %62, ptr %63, align 4
  %64 = load ptr, ptr %9, align 8
  %65 = icmp ne ptr %64, null
  br i1 %65, label %66, label %69

66:                                               ; preds = %53
  %67 = load ptr, ptr %9, align 8
  %68 = call zeroext i1 @SDL_GetRectIntersection_REAL(ptr noundef %67, ptr noundef %15, ptr noundef %15)
  br label %69

69:                                               ; preds = %66, %53
  %70 = getelementptr inbounds nuw %struct.SDL_Rect, ptr %15, i32 0, i32 2
  %71 = load i32, ptr %70, align 4
  %72 = icmp eq i32 %71, 0
  br i1 %72, label %77, label %73

73:                                               ; preds = %69
  %74 = getelementptr inbounds nuw %struct.SDL_Rect, ptr %15, i32 0, i32 3
  %75 = load i32, ptr %74, align 4
  %76 = icmp eq i32 %75, 0
  br i1 %76, label %77, label %78

77:                                               ; preds = %73, %69
  store i1 true, ptr %7, align 1
  store i32 1, ptr %16, align 4
  br label %121

78:                                               ; preds = %73
  %79 = load ptr, ptr %8, align 8
  %80 = getelementptr inbounds nuw %struct.SDL_Texture, ptr %79, i32 0, i32 14
  %81 = load ptr, ptr %80, align 8
  %82 = icmp ne ptr %81, null
  br i1 %82, label %83, label %90

83:                                               ; preds = %78
  %84 = load ptr, ptr %8, align 8
  %85 = load ptr, ptr %10, align 8
  %86 = load i32, ptr %11, align 4
  %87 = load ptr, ptr %12, align 8
  %88 = load i32, ptr %13, align 4
  %89 = call zeroext i1 @SDL_UpdateTextureNVPlanar(ptr noundef %84, ptr noundef %15, ptr noundef %85, i32 noundef %86, ptr noundef %87, i32 noundef %88)
  store i1 %89, ptr %7, align 1
  store i32 1, ptr %16, align 4
  br label %121

90:                                               ; preds = %78
  br label %91

91:                                               ; preds = %90
  br label %92

92:                                               ; preds = %91
  br label %93

93:                                               ; preds = %92
  %94 = load ptr, ptr %8, align 8
  %95 = getelementptr inbounds nuw %struct.SDL_Texture, ptr %94, i32 0, i32 12
  %96 = load ptr, ptr %95, align 8
  store ptr %96, ptr %14, align 8
  br label %97

97:                                               ; preds = %93
  br label %98

98:                                               ; preds = %97
  br label %99

99:                                               ; preds = %98
  %100 = load ptr, ptr %14, align 8
  %101 = getelementptr inbounds nuw %struct.SDL_Renderer, ptr %100, i32 0, i32 16
  %102 = load ptr, ptr %101, align 8
  %103 = icmp ne ptr %102, null
  br i1 %103, label %104, label %119

104:                                              ; preds = %99
  %105 = load ptr, ptr %8, align 8
  %106 = call zeroext i1 @FlushRenderCommandsIfTextureNeeded(ptr noundef %105)
  br i1 %106, label %108, label %107

107:                                              ; preds = %104
  store i1 false, ptr %7, align 1
  store i32 1, ptr %16, align 4
  br label %121

108:                                              ; preds = %104
  %109 = load ptr, ptr %14, align 8
  %110 = getelementptr inbounds nuw %struct.SDL_Renderer, ptr %109, i32 0, i32 16
  %111 = load ptr, ptr %110, align 8
  %112 = load ptr, ptr %14, align 8
  %113 = load ptr, ptr %8, align 8
  %114 = load ptr, ptr %10, align 8
  %115 = load i32, ptr %11, align 4
  %116 = load ptr, ptr %12, align 8
  %117 = load i32, ptr %13, align 4
  %118 = call zeroext i1 %111(ptr noundef %112, ptr noundef %113, ptr noundef %15, ptr noundef %114, i32 noundef %115, ptr noundef %116, i32 noundef %117)
  store i1 %118, ptr %7, align 1
  store i32 1, ptr %16, align 4
  br label %121

119:                                              ; preds = %99
  %120 = call zeroext i1 (ptr, ...) @SDL_SetError_REAL(ptr noundef @.str.54)
  store i1 %120, ptr %7, align 1
  store i32 1, ptr %16, align 4
  br label %121

121:                                              ; preds = %119, %108, %107, %83, %77, %51, %39, %34, %29, %24, %19
  call void @llvm.lifetime.end.p0(i64 16, ptr %15) #10
  call void @llvm.lifetime.end.p0(i64 8, ptr %14) #10
  %122 = load i1, ptr %7, align 1
  ret i1 %122
}