; Function Attrs: nounwind uwtable
define hidden zeroext i1 @SDL_UpdateNVTexture_REAL(ptr noundef %0, ptr noundef %1, ptr noundef %2, i32 noundef %3, ptr noundef %4, i32 noundef %5) local_unnamed_addr #0 {
  %7 = alloca %struct.SDL_Rect, align 4
  call void @llvm.lifetime.start.p0(i64 16, ptr nonnull %7) #15
  %8 = tail call zeroext i1 @SDL_ObjectValid(ptr noundef %0, i32 noundef 3) #15
  br i1 %8, label %11, label %9

9:                                                ; preds = %6
  %10 = tail call zeroext i1 (ptr, ...) @SDL_SetError_REAL(ptr noundef nonnull @.str.2, ptr noundef nonnull @.str.52) #15
  br label %60

11:                                               ; preds = %6
  %.not = icmp eq ptr %2, null
  br i1 %.not, label %12, label %14

12:                                               ; preds = %11
  %13 = tail call zeroext i1 (ptr, ...) @SDL_SetError_REAL(ptr noundef nonnull @.str.2, ptr noundef nonnull @.str.58) #15
  br label %60

14:                                               ; preds = %11
  %.not35 = icmp eq i32 %3, 0
  br i1 %.not35, label %15, label %17

15:                                               ; preds = %14
  %16 = tail call zeroext i1 (ptr, ...) @SDL_SetError_REAL(ptr noundef nonnull @.str.2, ptr noundef nonnull @.str.59) #15
  br label %60

17:                                               ; preds = %14
  %.not36 = icmp eq ptr %4, null
  br i1 %.not36, label %18, label %20

18:                                               ; preds = %17
  %19 = tail call zeroext i1 (ptr, ...) @SDL_SetError_REAL(ptr noundef nonnull @.str.2, ptr noundef nonnull @.str.65) #15
  br label %60

20:                                               ; preds = %17
  %.not37 = icmp eq i32 %5, 0
  br i1 %.not37, label %21, label %23

21:                                               ; preds = %20
  %22 = tail call zeroext i1 (ptr, ...) @SDL_SetError_REAL(ptr noundef nonnull @.str.2, ptr noundef nonnull @.str.66) #15
  br label %60

23:                                               ; preds = %20
  %24 = load i32, ptr %0, align 8
  switch i32 %24, label %25 [
    i32 842094158, label %27
    i32 825382478, label %27
  ]

25:                                               ; preds = %23
  %26 = tail call zeroext i1 (ptr, ...) @SDL_SetError_REAL(ptr noundef nonnull @.str.67) #15
  br label %60

27:                                               ; preds = %23, %23
  store i32 0, ptr %7, align 4
  %28 = getelementptr inbounds nuw i8, ptr %7, i64 4
  store i32 0, ptr %28, align 4
  %29 = getelementptr inbounds nuw i8, ptr %0, i64 4
  %30 = load i32, ptr %29, align 4
  %31 = getelementptr inbounds nuw i8, ptr %7, i64 8
  store i32 %30, ptr %31, align 4
  %32 = getelementptr inbounds nuw i8, ptr %0, i64 8
  %33 = load i32, ptr %32, align 8
  %34 = getelementptr inbounds nuw i8, ptr %7, i64 12
  store i32 %33, ptr %34, align 4
  %.not40 = icmp eq ptr %1, null
  br i1 %.not40, label %37, label %35

35:                                               ; preds = %27
  %36 = call zeroext i1 @SDL_GetRectIntersection_REAL(ptr noundef nonnull %1, ptr noundef nonnull %7, ptr noundef nonnull %7) #15
  %.pre = load i32, ptr %31, align 4
  %.pre44 = load i32, ptr %34, align 4
  br label %37

37:                                               ; preds = %35, %27
  %38 = phi i32 [ %.pre44, %35 ], [ %33, %27 ]
  %39 = phi i32 [ %.pre, %35 ], [ %30, %27 ]
  %40 = icmp eq i32 %39, 0
  %41 = icmp eq i32 %38, 0
  %or.cond = select i1 %40, i1 true, i1 %41
  br i1 %or.cond, label %60, label %42

42:                                               ; preds = %37
  %43 = getelementptr inbounds nuw i8, ptr %0, i64 224
  %44 = load ptr, ptr %43, align 8
  %.not41 = icmp eq ptr %44, null
  br i1 %.not41, label %47, label %45

45:                                               ; preds = %42
  %46 = call fastcc zeroext i1 @SDL_UpdateTextureNVPlanar(ptr noundef nonnull %0, ptr noundef %7, ptr noundef %2, i32 noundef %3, ptr noundef %4, i32 noundef %5)
  br label %60

47:                                               ; preds = %42
  %48 = getelementptr inbounds nuw i8, ptr %0, i64 208
  %49 = load ptr, ptr %48, align 8
  %50 = getelementptr inbounds nuw i8, ptr %49, i64 128
  %51 = load ptr, ptr %50, align 8
  %.not42 = icmp eq ptr %51, null
  br i1 %.not42, label %58, label %52

52:                                               ; preds = %47
  %53 = getelementptr i8, ptr %0, i64 272
  %.val43 = load i32, ptr %53, align 8
  %54 = call fastcc zeroext i1 @FlushRenderCommandsIfTextureNeeded(ptr nonnull %49, i32 %.val43)
  br i1 %54, label %55, label %60

55:                                               ; preds = %52
  %56 = load ptr, ptr %50, align 8
  %57 = call zeroext i1 %56(ptr noundef nonnull %49, ptr noundef nonnull %0, ptr noundef nonnull %7, ptr noundef nonnull %2, i32 noundef %3, ptr noundef nonnull %4, i32 noundef %5) #15
  br label %60

58:                                               ; preds = %47
  %59 = call zeroext i1 (ptr, ...) @SDL_SetError_REAL(ptr noundef nonnull @.str.54) #15
  br label %60

60:                                               ; preds = %52, %37, %58, %55, %45, %25, %21, %18, %15, %12, %9
  %.0 = phi i1 [ %26, %25 ], [ %46, %45 ], [ %57, %55 ], [ %59, %58 ], [ %22, %21 ], [ %19, %18 ], [ %16, %15 ], [ %13, %12 ], [ false, %9 ], [ true, %37 ], [ false, %52 ]
  call void @llvm.lifetime.end.p0(i64 16, ptr nonnull %7) #15
  ret i1 %.0
}